target datalayout = "e-m:e-p270:32:32-p271:32:32-p272:64:64-i64:64-i128:128-f80:128-n8:16:32:64-S128"
target triple = "x86_64-pc-linux-gnu"

%"class.absl::lts_20240722::AnyInvocable" = type { %"class.absl::lts_20240722::internal_any_invocable::Impl" }
%"class.absl::lts_20240722::internal_any_invocable::Impl" = type { %"class.absl::lts_20240722::internal_any_invocable::CoreImpl" }
%"class.absl::lts_20240722::internal_any_invocable::CoreImpl" = type { %"union.absl::lts_20240722::internal_any_invocable::TypeErasedState", ptr, ptr }
%"union.absl::lts_20240722::internal_any_invocable::TypeErasedState" = type { %struct.anon }
%struct.anon = type { ptr, i64 }
%"struct.grpc_event_engine::experimental::(anonymous namespace)::EventEngineEndpointWrapper::grpc_event_engine_endpoint" = type { %struct.grpc_endpoint, ptr, [232 x i8], [232 x i8] }
%struct.grpc_endpoint = type { ptr }
%class.anon = type { ptr, ptr }

; Function Attrs: mustprogress nounwind uwtable
define internal void @"_ZN4absl12lts_2024072222internal_any_invocable8CoreImplILb0EvJNS0_8StatusOrIiEEEE22InitializeLocalManagerIZN17grpc_event_engine12experimental49grpc_event_engine_endpoint_destroy_and_release_fdEP13grpc_endpointPiP12grpc_closureE3$_0vEEvv"(ptr noundef nonnull align 16 dereferenceable(32) %0) #7 align 2 {
  %2 = alloca ptr, align 8
  store ptr %0, ptr %2, align 8, !tbaa !70
  %3 = load ptr, ptr %2, align 8
  %4 = getelementptr inbounds nuw %"class.absl::lts_20240722::internal_any_invocable::CoreImpl", ptr %3, i32 0, i32 1
  store ptr @_ZN4absl12lts_2024072222internal_any_invocable19LocalManagerTrivialENS1_14FunctionToCallEPNS1_15TypeErasedStateES4_, ptr %4, align 16, !tbaa !72
  ret void
}

; Function Attrs: mustprogress uwtable
define internal void @"_ZN4absl12lts_2024072222internal_any_invocable8CoreImplILb0EvJNS0_8StatusOrIiEEEE17InitializeStorageIRZN17grpc_event_engine12experimental49grpc_event_engine_endpoint_destroy_and_release_fdEP13grpc_endpointPiP12grpc_closureE3$_0JSE_EvEEvDpOT0_"(ptr noundef nonnull align 16 dereferenceable(32) %0, ptr noundef nonnull align 8 dereferenceable(16) %1) #4 align 2 {
  %3 = alloca ptr, align 8
  %4 = alloca ptr, align 8
  store ptr %0, ptr %3, align 8, !tbaa !70
  store ptr %1, ptr %4, align 8, !tbaa !73
  %5 = load ptr, ptr %3, align 8
  %6 = getelementptr inbounds nuw %"class.absl::lts_20240722::internal_any_invocable::CoreImpl", ptr %5, i32 0, i32 0
  %7 = load ptr, ptr %4, align 8, !tbaa !73
  call void @llvm.memcpy.p0.p0.i64(ptr align 8 %6, ptr align 8 %7, i64 16, i1 false), !tbaa.struct !323
  %8 = getelementptr inbounds nuw %"class.absl::lts_20240722::internal_any_invocable::CoreImpl", ptr %5, i32 0, i32 2
  store ptr @"_ZN4absl12lts_2024072222internal_any_invocable12LocalInvokerILb0EvRZN17grpc_event_engine12experimental49grpc_event_engine_endpoint_destroy_and_release_fdEP13grpc_endpointPiP12grpc_closureE3$_0JNS0_8StatusOrIiEEEEET0_PNS1_15TypeErasedStateEDpNS1_18ForwardedParameterIT2_E4typeE", ptr %8, align 8, !tbaa !130
  call void @"_ZN4absl12lts_2024072222internal_any_invocable8CoreImplILb0EvJNS0_8StatusOrIiEEEE22InitializeLocalManagerIZN17grpc_event_engine12experimental49grpc_event_engine_endpoint_destroy_and_release_fdEP13grpc_endpointPiP12grpc_closureE3$_0vEEvv"(ptr noundef nonnull align 16 dereferenceable(32) %5)
  ret void
}

; Function Attrs: mustprogress uwtable
define internal void @"_ZN4absl12lts_2024072222internal_any_invocable8CoreImplILb0EvJNS0_8StatusOrIiEEEE10InitializeILNS5_10TargetTypeE3ERZN17grpc_event_engine12experimental49grpc_event_engine_endpoint_destroy_and_release_fdEP13grpc_endpointPiP12grpc_closureE3$_0SF_vEEvOT1_"(ptr noundef nonnull align 16 dereferenceable(32) %0, ptr noundef nonnull align 8 dereferenceable(16) %1) #4 align 2 {
  %3 = alloca ptr, align 8
  %4 = alloca ptr, align 8
  store ptr %0, ptr %3, align 8, !tbaa !70
  store ptr %1, ptr %4, align 8, !tbaa !73
  %5 = load ptr, ptr %3, align 8
  %6 = load ptr, ptr %4, align 8, !tbaa !73
  call void @"_ZN4absl12lts_2024072222internal_any_invocable8CoreImplILb0EvJNS0_8StatusOrIiEEEE17InitializeStorageIRZN17grpc_event_engine12experimental49grpc_event_engine_endpoint_destroy_and_release_fdEP13grpc_endpointPiP12grpc_closureE3$_0JSE_EvEEvDpOT0_"(ptr noundef nonnull align 16 dereferenceable(32) %5, ptr noundef nonnull align 8 dereferenceable(16) %6)
  ret void
}

; Function Attrs: mustprogress uwtable
define internal void @"_ZN4absl12lts_2024072222internal_any_invocable8CoreImplILb0EvJNS0_8StatusOrIiEEEEC2IRZN17grpc_event_engine12experimental49grpc_event_engine_endpoint_destroy_and_release_fdEP13grpc_endpointPiP12grpc_closureE3$_0SE_EENS1_24TypedConversionConstructIT_EEOT0_"(ptr noundef nonnull align 16 dereferenceable(32) %0, ptr noundef nonnull align 8 dereferenceable(16) %1) unnamed_addr #4 align 2 {
  %3 = alloca ptr, align 8
  %4 = alloca ptr, align 8
  %5 = alloca i32, align 4
  store ptr %0, ptr %3, align 8, !tbaa !70
  store ptr %1, ptr %4, align 8, !tbaa !73
  %6 = load ptr, ptr %3, align 8
  call void @llvm.lifetime.start.p0(i64 4, ptr %5) #3
  store i32 3, ptr %5, align 4, !tbaa !321
  %7 = load ptr, ptr %4, align 8, !tbaa !73
  call void @"_ZN4absl12lts_2024072222internal_any_invocable8CoreImplILb0EvJNS0_8StatusOrIiEEEE10InitializeILNS5_10TargetTypeE3ERZN17grpc_event_engine12experimental49grpc_event_engine_endpoint_destroy_and_release_fdEP13grpc_endpointPiP12grpc_closureE3$_0SF_vEEvOT1_"(ptr noundef nonnull align 16 dereferenceable(32) %6, ptr noundef nonnull align 8 dereferenceable(16) %7)
  call void @llvm.lifetime.end.p0(i64 4, ptr %5) #3
  ret void
}

; Function Attrs: mustprogress nounwind uwtable
define linkonce_odr void @_ZN4absl12lts_2024072222internal_any_invocable8CoreImplILb0EvJNS0_8StatusOrIiEEEEC2Ev(ptr noundef nonnull align 16 dereferenceable(32) %0) unnamed_addr #7 comdat align 2 {
  %2 = alloca ptr, align 8
  store ptr %0, ptr %2, align 8, !tbaa !70
  %3 = load ptr, ptr %2, align 8
  %4 = getelementptr inbounds nuw %"class.absl::lts_20240722::internal_any_invocable::CoreImpl", ptr %3, i32 0, i32 1
  store ptr @_ZN4absl12lts_2024072222internal_any_invocable12EmptyManagerENS1_14FunctionToCallEPNS1_15TypeErasedStateES4_, ptr %4, align 16, !tbaa !72
  %5 = getelementptr inbounds nuw %"class.absl::lts_20240722::internal_any_invocable::CoreImpl", ptr %3, i32 0, i32 2
  store ptr null, ptr %5, align 8, !tbaa !130
  ret void
}

; Function Attrs: mustprogress uwtable
define internal void @"_ZN4absl12lts_2024072222internal_any_invocable4ImplIFvNS0_8StatusOrIiEEEEC2IZN17grpc_event_engine12experimental49grpc_event_engine_endpoint_destroy_and_release_fdEP13grpc_endpointPiP12grpc_closureE3$_0EENS1_19ConversionConstructEOT_"(ptr noundef nonnull align 16 dereferenceable(32) %0, ptr noundef nonnull align 8 dereferenceable(16) %1) unnamed_addr #4 align 2 {
  %3 = alloca ptr, align 8
  %4 = alloca ptr, align 8
  store ptr %0, ptr %3, align 8, !tbaa !128
  store ptr %1, ptr %4, align 8, !tbaa !73
  %5 = load ptr, ptr %3, align 8
  %6 = load ptr, ptr %4, align 8, !tbaa !73
  call void @"_ZN4absl12lts_2024072222internal_any_invocable8CoreImplILb0EvJNS0_8StatusOrIiEEEEC2IRZN17grpc_event_engine12experimental49grpc_event_engine_endpoint_destroy_and_release_fdEP13grpc_endpointPiP12grpc_closureE3$_0SE_EENS1_24TypedConversionConstructIT_EEOT0_"(ptr noundef nonnull align 16 dereferenceable(32) %5, ptr noundef nonnull align 8 dereferenceable(16) %6)
  ret void
}

; Function Attrs: mustprogress nounwind uwtable
define linkonce_odr void @_ZN4absl12lts_2024072222internal_any_invocable4ImplIFvNS0_8StatusOrIiEEEEC2Ev(ptr noundef nonnull align 16 dereferenceable(32) %0) unnamed_addr #7 comdat align 2 {
  %2 = alloca ptr, align 8
  store ptr %0, ptr %2, align 8, !tbaa !128
  %3 = load ptr, ptr %2, align 8
  call void @_ZN4absl12lts_2024072222internal_any_invocable8CoreImplILb0EvJNS0_8StatusOrIiEEEEC2Ev(ptr noundef nonnull align 16 dereferenceable(32) %3) #3
  ret void
}

; Function Attrs: mustprogress uwtable
define internal void @"_ZN4absl12lts_2024072212AnyInvocableIFvNS0_8StatusOrIiEEEEC2IZN17grpc_event_engine12experimental49grpc_event_engine_endpoint_destroy_and_release_fdEP13grpc_endpointPiP12grpc_closureE3$_0vEEOT_"(ptr noundef nonnull align 16 dereferenceable(32) %0, ptr noundef nonnull align 8 dereferenceable(16) %1) unnamed_addr #4 align 2 {
  %3 = alloca ptr, align 8
  %4 = alloca ptr, align 8
  store ptr %0, ptr %3, align 8, !tbaa !65
  store ptr %1, ptr %4, align 8, !tbaa !73
  %5 = load ptr, ptr %3, align 8
  %6 = load ptr, ptr %4, align 8, !tbaa !73
  call void @"_ZN4absl12lts_2024072222internal_any_invocable4ImplIFvNS0_8StatusOrIiEEEEC2IZN17grpc_event_engine12experimental49grpc_event_engine_endpoint_destroy_and_release_fdEP13grpc_endpointPiP12grpc_closureE3$_0EENS1_19ConversionConstructEOT_"(ptr noundef nonnull align 16 dereferenceable(32) %5, ptr noundef nonnull align 8 dereferenceable(16) %6)
  ret void
}

; Function Attrs: mustprogress nounwind uwtable
define linkonce_odr void @_ZN4absl12lts_2024072222internal_any_invocable8CoreImplILb0EvJNS0_8StatusOrIiEEEED2Ev(ptr noundef nonnull align 16 dereferenceable(32) %0) unnamed_addr #7 comdat align 2 {
  %2 = alloca ptr, align 8
  store ptr %0, ptr %2, align 8, !tbaa !70
  %3 = load ptr, ptr %2, align 8
  %4 = getelementptr inbounds nuw %"class.absl::lts_20240722::internal_any_invocable::CoreImpl", ptr %3, i32 0, i32 1
  %5 = load ptr, ptr %4, align 16, !tbaa !72
  %6 = getelementptr inbounds nuw %"class.absl::lts_20240722::internal_any_invocable::CoreImpl", ptr %3, i32 0, i32 0
  %7 = getelementptr inbounds nuw %"class.absl::lts_20240722::internal_any_invocable::CoreImpl", ptr %3, i32 0, i32 0
  call void %5(i1 noundef zeroext true, ptr noundef %6, ptr noundef %7) #3
  ret void
}

; Function Attrs: mustprogress nounwind uwtable
define linkonce_odr void @_ZN4absl12lts_2024072212AnyInvocableIFvNS0_8StatusOrIiEEEEC2EDn(ptr noundef nonnull align 16 dereferenceable(32) %0, ptr %1) unnamed_addr #7 comdat align 2 {
  %3 = alloca ptr, align 8
  %4 = alloca ptr, align 8
  store ptr %0, ptr %3, align 8, !tbaa !65
  store ptr %1, ptr %4, align 8, !tbaa !56
  %5 = load ptr, ptr %3, align 8
  call void @_ZN4absl12lts_2024072222internal_any_invocable4ImplIFvNS0_8StatusOrIiEEEEC2Ev(ptr noundef nonnull align 16 dereferenceable(32) %5) #3
  ret void
}

; Function Attrs: mustprogress uwtable
define void @_ZN17grpc_event_engine12experimental49grpc_event_engine_endpoint_destroy_and_release_fdEP13grpc_endpointPiP12grpc_closure(ptr noundef %0, ptr noundef %1, ptr noundef %2) #4 personality ptr @__gxx_personality_v0 {
  %4 = alloca ptr, align 8
  %5 = alloca ptr, align 8
  %6 = alloca ptr, align 8
  %7 = alloca ptr, align 8
  %8 = alloca %"class.absl::lts_20240722::AnyInvocable", align 16
  %9 = alloca ptr, align 8
  %10 = alloca i32, align 4
  %11 = alloca %"class.absl::lts_20240722::AnyInvocable", align 16
  %12 = alloca %class.anon, align 8
  store ptr %0, ptr %4, align 8, !tbaa !52
  store ptr %1, ptr %5, align 8, !tbaa !58
  store ptr %2, ptr %6, align 8, !tbaa !60
  call void @llvm.lifetime.start.p0(i64 8, ptr %7) #3
  %13 = load ptr, ptr %4, align 8, !tbaa !52
  store ptr %13, ptr %7, align 8, !tbaa !55
  %14 = load ptr, ptr %5, align 8, !tbaa !58
  %15 = icmp eq ptr %14, null
  br i1 %15, label %19, label %16

16:                                               ; preds = %3
  %17 = load ptr, ptr %6, align 8, !tbaa !60
  %18 = icmp eq ptr %17, null
  br i1 %18, label %19, label %33

19:                                               ; preds = %16, %3
  %20 = load ptr, ptr %5, align 8, !tbaa !58
  %21 = icmp ne ptr %20, null
  br i1 %21, label %22, label %24

22:                                               ; preds = %19
  %23 = load ptr, ptr %5, align 8, !tbaa !58
  store i32 -1, ptr %23, align 4, !tbaa !61
  br label %24

24:                                               ; preds = %22, %19
  %25 = load ptr, ptr %7, align 8, !tbaa !55
  %26 = getelementptr inbounds nuw %"struct.grpc_event_engine::experimental::(anonymous namespace)::EventEngineEndpointWrapper::grpc_event_engine_endpoint", ptr %25, i32 0, i32 1
  %27 = load ptr, ptr %26, align 8, !tbaa !45
  call void @_ZN4absl12lts_2024072212AnyInvocableIFvNS0_8StatusOrIiEEEEC2EDn(ptr noundef nonnull align 16 dereferenceable(32) %8, ptr null) #3
  invoke void @_ZN17grpc_event_engine12experimental12_GLOBAL__N_126EventEngineEndpointWrapper15TriggerShutdownEN4absl12lts_2024072212AnyInvocableIFvNS4_8StatusOrIiEEEEE(ptr noundef nonnull align 16 dereferenceable(164) %27, ptr noundef %8)
          to label %28 unwind label %29

28:                                               ; preds = %24
  call void @_ZN4absl12lts_2024072222internal_any_invocable8CoreImplILb0EvJNS0_8StatusOrIiEEEED2Ev(ptr noundef nonnull align 16 dereferenceable(32) %8) #3
  br label %47

29:                                               ; preds = %24
  %30 = landingpad { ptr, i32 }
          cleanup
  %31 = extractvalue { ptr, i32 } %30, 0
  store ptr %31, ptr %9, align 8
  %32 = extractvalue { ptr, i32 } %30, 1
  store i32 %32, ptr %10, align 4
  call void @_ZN4absl12lts_2024072222internal_any_invocable8CoreImplILb0EvJNS0_8StatusOrIiEEEED2Ev(ptr noundef nonnull align 16 dereferenceable(32) %8) #3
  br label %51

33:                                               ; preds = %16
  %34 = load ptr, ptr %5, align 8, !tbaa !58
  store i32 -1, ptr %34, align 4, !tbaa !61
  %35 = load ptr, ptr %7, align 8, !tbaa !55
  %36 = getelementptr inbounds nuw %"struct.grpc_event_engine::experimental::(anonymous namespace)::EventEngineEndpointWrapper::grpc_event_engine_endpoint", ptr %35, i32 0, i32 1
  %37 = load ptr, ptr %36, align 8, !tbaa !45
  call void @llvm.lifetime.start.p0(i64 16, ptr %12) #3
  %38 = getelementptr inbounds nuw %class.anon, ptr %12, i32 0, i32 0
  %39 = load ptr, ptr %5, align 8, !tbaa !58
  store ptr %39, ptr %38, align 8, !tbaa !62
  %40 = getelementptr inbounds nuw %class.anon, ptr %12, i32 0, i32 1
  %41 = load ptr, ptr %6, align 8, !tbaa !60
  store ptr %41, ptr %40, align 8, !tbaa !64
  call void @"_ZN4absl12lts_2024072212AnyInvocableIFvNS0_8StatusOrIiEEEEC2IZN17grpc_event_engine12experimental49grpc_event_engine_endpoint_destroy_and_release_fdEP13grpc_endpointPiP12grpc_closureE3$_0vEEOT_"(ptr noundef nonnull align 16 dereferenceable(32) %11, ptr noundef nonnull align 8 dereferenceable(16) %12)
  invoke void @_ZN17grpc_event_engine12experimental12_GLOBAL__N_126EventEngineEndpointWrapper15TriggerShutdownEN4absl12lts_2024072212AnyInvocableIFvNS4_8StatusOrIiEEEEE(ptr noundef nonnull align 16 dereferenceable(164) %37, ptr noundef %11)
          to label %42 unwind label %43

42:                                               ; preds = %33
  call void @_ZN4absl12lts_2024072222internal_any_invocable8CoreImplILb0EvJNS0_8StatusOrIiEEEED2Ev(ptr noundef nonnull align 16 dereferenceable(32) %11) #3
  call void @llvm.lifetime.end.p0(i64 16, ptr %12) #3
  br label %47

43:                                               ; preds = %33
  %44 = landingpad { ptr, i32 }
          cleanup
  %45 = extractvalue { ptr, i32 } %44, 0
  store ptr %45, ptr %9, align 8
  %46 = extractvalue { ptr, i32 } %44, 1
  store i32 %46, ptr %10, align 4
  call void @_ZN4absl12lts_2024072222internal_any_invocable8CoreImplILb0EvJNS0_8StatusOrIiEEEED2Ev(ptr noundef nonnull align 16 dereferenceable(32) %11) #3
  call void @llvm.lifetime.end.p0(i64 16, ptr %12) #3
  br label %51

47:                                               ; preds = %42, %28
  %48 = load ptr, ptr %7, align 8, !tbaa !55
  %49 = getelementptr inbounds nuw %"struct.grpc_event_engine::experimental::(anonymous namespace)::EventEngineEndpointWrapper::grpc_event_engine_endpoint", ptr %48, i32 0, i32 1
  %50 = load ptr, ptr %49, align 8, !tbaa !45
  call void @_ZN17grpc_event_engine12experimental12_GLOBAL__N_126EventEngineEndpointWrapper5UnrefEv(ptr noundef nonnull align 16 dereferenceable(164) %50)
  call void @llvm.lifetime.end.p0(i64 8, ptr %7) #3
  ret void

51:                                               ; preds = %43, %29
  call void @llvm.lifetime.end.p0(i64 8, ptr %7) #3
  br label %52

52:                                               ; preds = %51
  %53 = load ptr, ptr %9, align 8
  %54 = load i32, ptr %10, align 4
  %55 = insertvalue { ptr, i32 } poison, ptr %53, 0
  %56 = insertvalue { ptr, i32 } %55, i32 %54, 1
  resume { ptr, i32 } %56
}