; Function Attrs: mustprogress uwtable
define void @_ZN17grpc_event_engine12experimental49grpc_event_engine_endpoint_destroy_and_release_fdEP13grpc_endpointPiP12grpc_closure(ptr noundef readonly captures(none) %0, ptr noundef %1, ptr noundef %2) local_unnamed_addr #3 personality ptr @__gxx_personality_v0 {
  %4 = alloca %"class.absl::lts_20240722::AnyInvocable", align 16
  %5 = alloca %"class.absl::lts_20240722::AnyInvocable", align 16
  %6 = icmp eq ptr %1, null
  %7 = icmp eq ptr %2, null
  %or.cond = or i1 %6, %7
  br i1 %or.cond, label %8, label %20

8:                                                ; preds = %3
  br i1 %6, label %10, label %9

9:                                                ; preds = %8
  store i32 -1, ptr %1, align 4, !tbaa !67
  br label %10

10:                                               ; preds = %9, %8
  %11 = getelementptr inbounds nuw i8, ptr %0, i64 8
  %12 = load ptr, ptr %11, align 8, !tbaa !61
  %13 = getelementptr inbounds nuw i8, ptr %4, i64 16
  store ptr @_ZN4absl12lts_2024072222internal_any_invocable12EmptyManagerENS1_14FunctionToCallEPNS1_15TypeErasedStateES4_, ptr %13, align 16, !tbaa !16
  %14 = getelementptr inbounds nuw i8, ptr %4, i64 24
  store ptr null, ptr %14, align 8, !tbaa !68
  invoke fastcc void @_ZN17grpc_event_engine12experimental12_GLOBAL__N_126EventEngineEndpointWrapper15TriggerShutdownEN4absl12lts_2024072212AnyInvocableIFvNS4_8StatusOrIiEEEEE(ptr noundef nonnull align 16 dereferenceable(164) %12, ptr noundef %4)
          to label %15 unwind label %17

15:                                               ; preds = %10
  %16 = load ptr, ptr %13, align 16, !tbaa !16
  call void %16(i1 noundef zeroext true, ptr noundef nonnull align 16 dereferenceable(32) %4, ptr noundef nonnull align 16 dereferenceable(32) %4) #28
  br label %30

17:                                               ; preds = %10
  %18 = landingpad { ptr, i32 }
          cleanup
  %19 = load ptr, ptr %13, align 16, !tbaa !16
  call void %19(i1 noundef zeroext true, ptr noundef nonnull align 16 dereferenceable(32) %4, ptr noundef nonnull align 16 dereferenceable(32) %4) #28
  br label %33

20:                                               ; preds = %3
  store i32 -1, ptr %1, align 4, !tbaa !67
  %21 = getelementptr inbounds nuw i8, ptr %0, i64 8
  %22 = load ptr, ptr %21, align 8, !tbaa !61
  store ptr %1, ptr %5, align 16, !tbaa !69
  %.sroa.5.0..sroa_idx = getelementptr inbounds nuw i8, ptr %5, i64 8
  store ptr %2, ptr %.sroa.5.0..sroa_idx, align 8, !tbaa !71
  %23 = getelementptr inbounds nuw i8, ptr %5, i64 24
  store ptr @"_ZN4absl12lts_2024072222internal_any_invocable12LocalInvokerILb0EvRZN17grpc_event_engine12experimental49grpc_event_engine_endpoint_destroy_and_release_fdEP13grpc_endpointPiP12grpc_closureE3$_0JNS0_8StatusOrIiEEEEET0_PNS1_15TypeErasedStateEDpNS1_18ForwardedParameterIT2_E4typeE", ptr %23, align 8, !tbaa !68
  %24 = getelementptr inbounds nuw i8, ptr %5, i64 16
  store ptr @_ZN4absl12lts_2024072222internal_any_invocable19LocalManagerTrivialENS1_14FunctionToCallEPNS1_15TypeErasedStateES4_, ptr %24, align 16, !tbaa !16
  invoke fastcc void @_ZN17grpc_event_engine12experimental12_GLOBAL__N_126EventEngineEndpointWrapper15TriggerShutdownEN4absl12lts_2024072212AnyInvocableIFvNS4_8StatusOrIiEEEEE(ptr noundef nonnull align 16 dereferenceable(164) %22, ptr noundef %5)
          to label %25 unwind label %27

25:                                               ; preds = %20
  %26 = load ptr, ptr %24, align 16, !tbaa !16
  call void %26(i1 noundef zeroext true, ptr noundef nonnull align 16 dereferenceable(32) %5, ptr noundef nonnull align 16 dereferenceable(32) %5) #28
  br label %30

27:                                               ; preds = %20
  %28 = landingpad { ptr, i32 }
          cleanup
  %29 = load ptr, ptr %24, align 16, !tbaa !16
  call void %29(i1 noundef zeroext true, ptr noundef nonnull align 16 dereferenceable(32) %5, ptr noundef nonnull align 16 dereferenceable(32) %5) #28
  br label %33

30:                                               ; preds = %25, %15
  %31 = getelementptr inbounds nuw i8, ptr %0, i64 8
  %32 = load ptr, ptr %31, align 8, !tbaa !61
  call fastcc void @_ZN17grpc_event_engine12experimental12_GLOBAL__N_126EventEngineEndpointWrapper5UnrefEv(ptr noundef nonnull align 16 dereferenceable(164) %32)
  ret void

33:                                               ; preds = %27, %17
  %.pn = phi { ptr, i32 } [ %18, %17 ], [ %28, %27 ]
  resume { ptr, i32 } %.pn
}